; ModuleID = '5/28.c'
source_filename = "5/28.c"
target datalayout = "e-m:e-p270:32:32-p271:32:32-p272:64:64-i64:64-f80:128-n8:16:32:64-S128"
target triple = "x86_64-pc-linux-gnu"

@.str = private unnamed_addr constant [4 x i8] c"%lf\00", align 1
@.str.1 = private unnamed_addr constant [5 x i8] c"%s%s\00", align 1
@.str.2 = private unnamed_addr constant [6 x i8] c"error\00", align 1
@.str.3 = private unnamed_addr constant [4 x i8] c"yes\00", align 1
@.str.4 = private unnamed_addr constant [3 x i8] c"no\00", align 1

; Function Attrs: noinline nounwind uwtable
define dso_local i32 @main() #0 {
  %1 = alloca i32, align 4
  %2 = alloca double, align 8
  %3 = alloca [500 x i8], align 16
  %4 = alloca [500 x i8], align 16
  %5 = alloca i32, align 4
  %6 = alloca i32, align 4
  %7 = alloca i32, align 4
  %8 = alloca i32, align 4
  %9 = alloca i32, align 4
  %10 = alloca i32, align 4
  %11 = alloca i32, align 4
  %12 = alloca double, align 8
  store i32 0, i32* %1, align 4
  %13 = call i32 (i8*, ...) @__isoc99_scanf(i8* getelementptr inbounds ([4 x i8], [4 x i8]* @.str, i64 0, i64 0), double* %2)
  %14 = getelementptr inbounds [500 x i8], [500 x i8]* %3, i64 0, i64 0
  %15 = getelementptr inbounds [500 x i8], [500 x i8]* %4, i64 0, i64 0
  %16 = call i32 (i8*, ...) @__isoc99_scanf(i8* getelementptr inbounds ([5 x i8], [5 x i8]* @.str.1, i64 0, i64 0), i8* %14, i8* %15)
  %17 = getelementptr inbounds [500 x i8], [500 x i8]* %3, i64 0, i64 0
  %18 = call i64 @strlen(i8* %17) #3
  %19 = trunc i64 %18 to i32
  store i32 %19, i32* %5, align 4
  %20 = getelementptr inbounds [500 x i8], [500 x i8]* %4, i64 0, i64 0
  %21 = call i64 @strlen(i8* %20) #3
  %22 = trunc i64 %21 to i32
  store i32 %22, i32* %6, align 4
  %23 = load i32, i32* %5, align 4
  %24 = load i32, i32* %6, align 4
  %25 = icmp ne i32 %23, %24
  br i1 %25, label %26, label %28

26:                                               ; preds = %0
  %27 = call i32 (i8*, ...) @printf(i8* getelementptr inbounds ([6 x i8], [6 x i8]* @.str.2, i64 0, i64 0))
  br label %155

28:                                               ; preds = %0
  %29 = load i32, i32* %5, align 4
  store i32 %29, i32* %7, align 4
  store i32 0, i32* %8, align 4
  store i32 0, i32* %9, align 4
  br label %30

30:                                               ; preds = %109, %28
  %31 = load i32, i32* %9, align 4
  %32 = load i32, i32* %7, align 4
  %33 = icmp slt i32 %31, %32
  br i1 %33, label %34, label %112

34:                                               ; preds = %30
  %35 = load i32, i32* %9, align 4
  %36 = sext i32 %35 to i64
  %37 = getelementptr inbounds [500 x i8], [500 x i8]* %3, i64 0, i64 %36
  %38 = load i8, i8* %37, align 1
  %39 = sext i8 %38 to i32
  %40 = icmp ne i32 %39, 65
  br i1 %40, label %41, label %71

41:                                               ; preds = %34
  %42 = load i32, i32* %9, align 4
  %43 = sext i32 %42 to i64
  %44 = getelementptr inbounds [500 x i8], [500 x i8]* %3, i64 0, i64 %43
  %45 = load i8, i8* %44, align 1
  %46 = sext i8 %45 to i32
  %47 = icmp ne i32 %46, 84
  br i1 %47, label %48, label %71

48:                                               ; preds = %41
  %49 = load i32, i32* %9, align 4
  %50 = sext i32 %49 to i64
  %51 = getelementptr inbounds [500 x i8], [500 x i8]* %3, i64 0, i64 %50
  %52 = load i8, i8* %51, align 1
  %53 = sext i8 %52 to i32
  %54 = icmp ne i32 %53, 67
  br i1 %54, label %55, label %71

55:                                               ; preds = %48
  %56 = load i32, i32* %9, align 4
  %57 = sext i32 %56 to i64
  %58 = getelementptr inbounds [500 x i8], [500 x i8]* %3, i64 0, i64 %57
  %59 = load i8, i8* %58, align 1
  %60 = sext i8 %59 to i32
  %61 = icmp ne i32 %60, 71
  br i1 %61, label %62, label %71

62:                                               ; preds = %55
  %63 = load i32, i32* %9, align 4
  %64 = sext i32 %63 to i64
  %65 = getelementptr inbounds [500 x i8], [500 x i8]* %3, i64 0, i64 %64
  %66 = load i8, i8* %65, align 1
  %67 = sext i8 %66 to i32
  %68 = icmp ne i32 %67, 0
  br i1 %68, label %69, label %71

69:                                               ; preds = %62
  %70 = call i32 (i8*, ...) @printf(i8* getelementptr inbounds ([6 x i8], [6 x i8]* @.str.2, i64 0, i64 0))
  store i32 1, i32* %8, align 4
  br label %112

71:                                               ; preds = %62, %55, %48, %41, %34
  %72 = load i32, i32* %9, align 4
  %73 = sext i32 %72 to i64
  %74 = getelementptr inbounds [500 x i8], [500 x i8]* %4, i64 0, i64 %73
  %75 = load i8, i8* %74, align 1
  %76 = sext i8 %75 to i32
  %77 = icmp ne i32 %76, 65
  br i1 %77, label %78, label %108

78:                                               ; preds = %71
  %79 = load i32, i32* %9, align 4
  %80 = sext i32 %79 to i64
  %81 = getelementptr inbounds [500 x i8], [500 x i8]* %4, i64 0, i64 %80
  %82 = load i8, i8* %81, align 1
  %83 = sext i8 %82 to i32
  %84 = icmp ne i32 %83, 84
  br i1 %84, label %85, label %108

85:                                               ; preds = %78
  %86 = load i32, i32* %9, align 4
  %87 = sext i32 %86 to i64
  %88 = getelementptr inbounds [500 x i8], [500 x i8]* %4, i64 0, i64 %87
  %89 = load i8, i8* %88, align 1
  %90 = sext i8 %89 to i32
  %91 = icmp ne i32 %90, 67
  br i1 %91, label %92, label %108

92:                                               ; preds = %85
  %93 = load i32, i32* %9, align 4
  %94 = sext i32 %93 to i64
  %95 = getelementptr inbounds [500 x i8], [500 x i8]* %4, i64 0, i64 %94
  %96 = load i8, i8* %95, align 1
  %97 = sext i8 %96 to i32
  %98 = icmp ne i32 %97, 71
  br i1 %98, label %99, label %108

99:                                               ; preds = %92
  %100 = load i32, i32* %9, align 4
  %101 = sext i32 %100 to i64
  %102 = getelementptr inbounds [500 x i8], [500 x i8]* %3, i64 0, i64 %101
  %103 = load i8, i8* %102, align 1
  %104 = sext i8 %103 to i32
  %105 = icmp ne i32 %104, 0
  br i1 %105, label %106, label %108

106:                                              ; preds = %99
  %107 = call i32 (i8*, ...) @printf(i8* getelementptr inbounds ([6 x i8], [6 x i8]* @.str.2, i64 0, i64 0))
  store i32 1, i32* %8, align 4
  br label %112

108:                                              ; preds = %99, %92, %85, %78, %71
  br label %109

109:                                              ; preds = %108
  %110 = load i32, i32* %9, align 4
  %111 = add nsw i32 %110, 1
  store i32 %111, i32* %9, align 4
  br label %30

112:                                              ; preds = %106, %69, %30
  %113 = load i32, i32* %8, align 4
  %114 = icmp eq i32 %113, 0
  br i1 %114, label %115, label %154

115:                                              ; preds = %112
  store i32 0, i32* %11, align 4
  store i32 0, i32* %10, align 4
  br label %116

116:                                              ; preds = %136, %115
  %117 = load i32, i32* %10, align 4
  %118 = load i32, i32* %7, align 4
  %119 = icmp slt i32 %117, %118
  br i1 %119, label %120, label %139

120:                                              ; preds = %116
  %121 = load i32, i32* %10, align 4
  %122 = sext i32 %121 to i64
  %123 = getelementptr inbounds [500 x i8], [500 x i8]* %3, i64 0, i64 %122
  %124 = load i8, i8* %123, align 1
  %125 = sext i8 %124 to i32
  %126 = load i32, i32* %10, align 4
  %127 = sext i32 %126 to i64
  %128 = getelementptr inbounds [500 x i8], [500 x i8]* %4, i64 0, i64 %127
  %129 = load i8, i8* %128, align 1
  %130 = sext i8 %129 to i32
  %131 = icmp eq i32 %125, %130
  br i1 %131, label %132, label %135

132:                                              ; preds = %120
  %133 = load i32, i32* %11, align 4
  %134 = add nsw i32 %133, 1
  store i32 %134, i32* %11, align 4
  br label %135

135:                                              ; preds = %132, %120
  br label %136

136:                                              ; preds = %135
  %137 = load i32, i32* %10, align 4
  %138 = add nsw i32 %137, 1
  store i32 %138, i32* %10, align 4
  br label %116

139:                                              ; preds = %116
  %140 = load i32, i32* %11, align 4
  %141 = sitofp i32 %140 to double
  %142 = fmul double %141, 1.000000e+00
  %143 = load i32, i32* %7, align 4
  %144 = sitofp i32 %143 to double
  %145 = fdiv double %142, %144
  store double %145, double* %12, align 8
  %146 = load double, double* %12, align 8
  %147 = load double, double* %2, align 8
  %148 = fcmp ogt double %146, %147
  br i1 %148, label %149, label %151

149:                                              ; preds = %139
  %150 = call i32 (i8*, ...) @printf(i8* getelementptr inbounds ([4 x i8], [4 x i8]* @.str.3, i64 0, i64 0))
  br label %153

151:                                              ; preds = %139
  %152 = call i32 (i8*, ...) @printf(i8* getelementptr inbounds ([3 x i8], [3 x i8]* @.str.4, i64 0, i64 0))
  br label %153

153:                                              ; preds = %151, %149
  br label %154

154:                                              ; preds = %153, %112
  br label %155

155:                                              ; preds = %154, %26
  ret i32 0
}

declare dso_local i32 @__isoc99_scanf(i8*, ...) #1

; Function Attrs: nounwind readonly
declare dso_local i64 @strlen(i8*) #2

declare dso_local i32 @printf(i8*, ...) #1


!llvm.module.flags = !{!0}
!llvm.ident = !{!1}

!0 = !{i32 1, !"wchar_size", i32 4}
!1 = !{!"clang version 10.0.0-4ubuntu1 "}
